target datalayout = "e-m:e-p270:32:32-p271:32:32-p272:64:64-i64:64-i128:128-f80:128-n8:16:32:64-S128"
target triple = "x86_64-pc-linux-gnu"

%struct.nk_color = type { i8, i8, i8, i8 }

; Function Attrs: nounwind uwtable
define i32 @nk_rgba(i32 noundef %0, i32 noundef %1, i32 noundef %2, i32 noundef %3) #0 {
  %5 = alloca %struct.nk_color, align 1
  %6 = alloca i32, align 4
  %7 = alloca i32, align 4
  %8 = alloca i32, align 4
  %9 = alloca i32, align 4
  store i32 %0, ptr %6, align 4, !tbaa !13
  store i32 %1, ptr %7, align 4, !tbaa !13
  store i32 %2, ptr %8, align 4, !tbaa !13
  store i32 %3, ptr %9, align 4, !tbaa !13
  %10 = load i32, ptr %6, align 4, !tbaa !13
  %11 = icmp slt i32 %10, 255
  br i1 %11, label %12, label %14

12:                                               ; preds = %4
  %13 = load i32, ptr %6, align 4, !tbaa !13
  br label %15

14:                                               ; preds = %4
  br label %15

15:                                               ; preds = %14, %12
  %16 = phi i32 [ %13, %12 ], [ 255, %14 ]
  %17 = icmp slt i32 %16, 0
  br i1 %17, label %18, label %19

18:                                               ; preds = %15
  br label %27

19:                                               ; preds = %15
  %20 = load i32, ptr %6, align 4, !tbaa !13
  %21 = icmp slt i32 %20, 255
  br i1 %21, label %22, label %24

22:                                               ; preds = %19
  %23 = load i32, ptr %6, align 4, !tbaa !13
  br label %25

24:                                               ; preds = %19
  br label %25

25:                                               ; preds = %24, %22
  %26 = phi i32 [ %23, %22 ], [ 255, %24 ]
  br label %27

27:                                               ; preds = %25, %18
  %28 = phi i32 [ 0, %18 ], [ %26, %25 ]
  %29 = trunc i32 %28 to i8
  %30 = getelementptr inbounds nuw %struct.nk_color, ptr %5, i32 0, i32 0
  store i8 %29, ptr %30, align 1, !tbaa !49
  %31 = load i32, ptr %7, align 4, !tbaa !13
  %32 = icmp slt i32 %31, 255
  br i1 %32, label %33, label %35

33:                                               ; preds = %27
  %34 = load i32, ptr %7, align 4, !tbaa !13
  br label %36

35:                                               ; preds = %27
  br label %36

36:                                               ; preds = %35, %33
  %37 = phi i32 [ %34, %33 ], [ 255, %35 ]
  %38 = icmp slt i32 %37, 0
  br i1 %38, label %39, label %40

39:                                               ; preds = %36
  br label %48

40:                                               ; preds = %36
  %41 = load i32, ptr %7, align 4, !tbaa !13
  %42 = icmp slt i32 %41, 255
  br i1 %42, label %43, label %45

43:                                               ; preds = %40
  %44 = load i32, ptr %7, align 4, !tbaa !13
  br label %46

45:                                               ; preds = %40
  br label %46

46:                                               ; preds = %45, %43
  %47 = phi i32 [ %44, %43 ], [ 255, %45 ]
  br label %48

48:                                               ; preds = %46, %39
  %49 = phi i32 [ 0, %39 ], [ %47, %46 ]
  %50 = trunc i32 %49 to i8
  %51 = getelementptr inbounds nuw %struct.nk_color, ptr %5, i32 0, i32 1
  store i8 %50, ptr %51, align 1, !tbaa !51
  %52 = load i32, ptr %8, align 4, !tbaa !13
  %53 = icmp slt i32 %52, 255
  br i1 %53, label %54, label %56

54:                                               ; preds = %48
  %55 = load i32, ptr %8, align 4, !tbaa !13
  br label %57

56:                                               ; preds = %48
  br label %57

57:                                               ; preds = %56, %54
  %58 = phi i32 [ %55, %54 ], [ 255, %56 ]
  %59 = icmp slt i32 %58, 0
  br i1 %59, label %60, label %61

60:                                               ; preds = %57
  br label %69

61:                                               ; preds = %57
  %62 = load i32, ptr %8, align 4, !tbaa !13
  %63 = icmp slt i32 %62, 255
  br i1 %63, label %64, label %66

64:                                               ; preds = %61
  %65 = load i32, ptr %8, align 4, !tbaa !13
  br label %67

66:                                               ; preds = %61
  br label %67

67:                                               ; preds = %66, %64
  %68 = phi i32 [ %65, %64 ], [ 255, %66 ]
  br label %69

69:                                               ; preds = %67, %60
  %70 = phi i32 [ 0, %60 ], [ %68, %67 ]
  %71 = trunc i32 %70 to i8
  %72 = getelementptr inbounds nuw %struct.nk_color, ptr %5, i32 0, i32 2
  store i8 %71, ptr %72, align 1, !tbaa !52
  %73 = load i32, ptr %9, align 4, !tbaa !13
  %74 = icmp slt i32 %73, 255
  br i1 %74, label %75, label %77

75:                                               ; preds = %69
  %76 = load i32, ptr %9, align 4, !tbaa !13
  br label %78

77:                                               ; preds = %69
  br label %78

78:                                               ; preds = %77, %75
  %79 = phi i32 [ %76, %75 ], [ 255, %77 ]
  %80 = icmp slt i32 %79, 0
  br i1 %80, label %81, label %82

81:                                               ; preds = %78
  br label %90

82:                                               ; preds = %78
  %83 = load i32, ptr %9, align 4, !tbaa !13
  %84 = icmp slt i32 %83, 255
  br i1 %84, label %85, label %87

85:                                               ; preds = %82
  %86 = load i32, ptr %9, align 4, !tbaa !13
  br label %88

87:                                               ; preds = %82
  br label %88

88:                                               ; preds = %87, %85
  %89 = phi i32 [ %86, %85 ], [ 255, %87 ]
  br label %90

90:                                               ; preds = %88, %81
  %91 = phi i32 [ 0, %81 ], [ %89, %88 ]
  %92 = trunc i32 %91 to i8
  %93 = getelementptr inbounds nuw %struct.nk_color, ptr %5, i32 0, i32 3
  store i8 %92, ptr %93, align 1, !tbaa !53
  %94 = load i32, ptr %5, align 1
  ret i32 %94
}

; Function Attrs: nounwind uwtable
define i32 @nk_rgba_iv(ptr noundef %0) #0 {
  %2 = alloca %struct.nk_color, align 1
  %3 = alloca ptr, align 8
  store ptr %0, ptr %3, align 8, !tbaa !21
  %4 = load ptr, ptr %3, align 8, !tbaa !21
  %5 = getelementptr inbounds i32, ptr %4, i64 0
  %6 = load i32, ptr %5, align 4, !tbaa !13
  %7 = load ptr, ptr %3, align 8, !tbaa !21
  %8 = getelementptr inbounds i32, ptr %7, i64 1
  %9 = load i32, ptr %8, align 4, !tbaa !13
  %10 = load ptr, ptr %3, align 8, !tbaa !21
  %11 = getelementptr inbounds i32, ptr %10, i64 2
  %12 = load i32, ptr %11, align 4, !tbaa !13
  %13 = load ptr, ptr %3, align 8, !tbaa !21
  %14 = getelementptr inbounds i32, ptr %13, i64 3
  %15 = load i32, ptr %14, align 4, !tbaa !13
  %16 = call i32 @nk_rgba(i32 noundef %6, i32 noundef %9, i32 noundef %12, i32 noundef %15)
  store i32 %16, ptr %2, align 1
  %17 = load i32, ptr %2, align 1
  ret i32 %17
}